; Function Attrs: mustprogress uwtable
define noundef nonnull align 8 dereferenceable(32) ptr @_ZNK6casadi3Fmu13instance_nameB5cxx11Ev(ptr noundef nonnull align 8 dereferenceable(8) %0) local_unnamed_addr #4 align 2 personality ptr @__gxx_personality_v0 {
  %2 = alloca %"class.std::allocator", align 1
  %3 = tail call noundef zeroext i1 @_ZNK6casadi13GenericSharedINS_12SharedObjectENS_20SharedObjectInternalEE7is_nullEv(ptr noundef nonnull align 8 dereferenceable(8) %0)
  br i1 %3, label %4, label %14

4:                                                ; preds = %1
  %5 = load atomic i8, ptr @_ZGVZNK6casadi3Fmu13instance_nameB5cxx11EvE4nullB5cxx11 acquire, align 8
  %6 = icmp eq i8 %5, 0
  br i1 %6, label %7, label %17, !prof !50

7:                                                ; preds = %4
  %8 = tail call i32 @__cxa_guard_acquire(ptr nonnull @_ZGVZNK6casadi3Fmu13instance_nameB5cxx11EvE4nullB5cxx11) #33
  %.not = icmp eq i32 %8, 0
  br i1 %.not, label %17, label %9

9:                                                ; preds = %7
  call void @llvm.lifetime.start.p0(i64 1, ptr nonnull %2) #33
  invoke void @_ZNSt7__cxx1112basic_stringIcSt11char_traitsIcESaIcEEC2IS3_EEPKcRKS3_(ptr noundef nonnull align 8 dereferenceable(32) @_ZZNK6casadi3Fmu13instance_nameB5cxx11EvE4nullB5cxx11, ptr noundef nonnull @.str.8, ptr noundef nonnull align 1 dereferenceable(1) %2)
          to label %10 unwind label %12

10:                                               ; preds = %9
  call void @llvm.lifetime.end.p0(i64 1, ptr nonnull %2) #33
  %11 = call i32 @__cxa_atexit(ptr nonnull @_ZNSt7__cxx1112basic_stringIcSt11char_traitsIcESaIcEED2Ev, ptr nonnull @_ZZNK6casadi3Fmu13instance_nameB5cxx11EvE4nullB5cxx11, ptr nonnull @__dso_handle) #33
  call void @__cxa_guard_release(ptr nonnull @_ZGVZNK6casadi3Fmu13instance_nameB5cxx11EvE4nullB5cxx11) #33
  br label %17

12:                                               ; preds = %9
  %13 = landingpad { ptr, i32 }
          cleanup
  call void @llvm.lifetime.end.p0(i64 1, ptr nonnull %2) #33
  call void @__cxa_guard_abort(ptr nonnull @_ZGVZNK6casadi3Fmu13instance_nameB5cxx11EvE4nullB5cxx11) #33
  resume { ptr, i32 } %13

14:                                               ; preds = %1
  %15 = tail call noundef ptr @_ZNK6casadi13GenericSharedINS_12SharedObjectENS_20SharedObjectInternalEEptEv(ptr noundef nonnull align 8 dereferenceable(8) %0)
  %16 = getelementptr inbounds nuw i8, ptr %15, i64 216
  br label %17

17:                                               ; preds = %4, %7, %10, %14
  %.0 = phi ptr [ %16, %14 ], [ @_ZZNK6casadi3Fmu13instance_nameB5cxx11EvE4nullB5cxx11, %10 ], [ @_ZZNK6casadi3Fmu13instance_nameB5cxx11EvE4nullB5cxx11, %7 ], [ @_ZZNK6casadi3Fmu13instance_nameB5cxx11EvE4nullB5cxx11, %4 ]
  ret ptr %.0
}